target datalayout = "e-m:e-p270:32:32-p271:32:32-p272:64:64-i64:64-i128:128-f80:128-n8:16:32:64-S128"
target triple = "x86_64-pc-linux-gnu"

%class.int3 = type { i32, i32, i32 }

; Function Attrs: mustprogress nounwind uwtable
define linkonce_odr dso_local noundef nonnull align 4 dereferenceable(4) ptr @_ZNK4int3ixEi(ptr noundef nonnull align 4 dereferenceable(12) %0, i32 noundef %1) #1 comdat align 2 {
  %3 = alloca ptr, align 8
  %4 = alloca i32, align 4
  store ptr %0, ptr %3, align 8, !tbaa !59
  store i32 %1, ptr %4, align 4, !tbaa !9
  %5 = load ptr, ptr %3, align 8
  %6 = getelementptr inbounds nuw %class.int3, ptr %5, i32 0, i32 0
  %7 = load i32, ptr %4, align 4, !tbaa !9
  %8 = sext i32 %7 to i64
  %9 = getelementptr inbounds i32, ptr %6, i64 %8
  ret ptr %9
}

; Function Attrs: mustprogress uwtable
define dso_local noundef i32 @_ZeqRK4int3S1_(ptr noundef nonnull align 4 dereferenceable(12) %0, ptr noundef nonnull align 4 dereferenceable(12) %1) #8 {
  %3 = alloca i32, align 4
  %4 = alloca ptr, align 8
  %5 = alloca ptr, align 8
  %6 = alloca i32, align 4
  %7 = alloca i32, align 4
  store ptr %0, ptr %4, align 8, !tbaa !59
  store ptr %1, ptr %5, align 8, !tbaa !59
  call void @llvm.lifetime.start.p0(i64 4, ptr %6) #14
  store i32 0, ptr %6, align 4, !tbaa !9
  br label %8

8:                                                ; preds = %24, %2
  %9 = load i32, ptr %6, align 4, !tbaa !9
  %10 = icmp slt i32 %9, 3
  br i1 %10, label %12, label %11

11:                                               ; preds = %8
  store i32 2, ptr %7, align 4
  br label %27

12:                                               ; preds = %8
  %13 = load ptr, ptr %4, align 8, !tbaa !59
  %14 = load i32, ptr %6, align 4, !tbaa !9
  %15 = call noundef nonnull align 4 dereferenceable(4) ptr @_ZNK4int3ixEi(ptr noundef nonnull align 4 dereferenceable(12) %13, i32 noundef %14)
  %16 = load i32, ptr %15, align 4, !tbaa !9
  %17 = load ptr, ptr %5, align 8, !tbaa !59
  %18 = load i32, ptr %6, align 4, !tbaa !9
  %19 = call noundef nonnull align 4 dereferenceable(4) ptr @_ZNK4int3ixEi(ptr noundef nonnull align 4 dereferenceable(12) %17, i32 noundef %18)
  %20 = load i32, ptr %19, align 4, !tbaa !9
  %21 = icmp ne i32 %16, %20
  br i1 %21, label %22, label %23

22:                                               ; preds = %12
  store i32 0, ptr %3, align 4
  store i32 1, ptr %7, align 4
  br label %27

23:                                               ; preds = %12
  br label %24

24:                                               ; preds = %23
  %25 = load i32, ptr %6, align 4, !tbaa !9
  %26 = add nsw i32 %25, 1
  store i32 %26, ptr %6, align 4, !tbaa !9
  br label %8, !llvm.loop !61

27:                                               ; preds = %22, %11
  call void @llvm.lifetime.end.p0(i64 4, ptr %6) #14
  %28 = load i32, ptr %7, align 4
  switch i32 %28, label %32 [
    i32 2, label %29
    i32 1, label %30
  ]

29:                                               ; preds = %27
  store i32 1, ptr %3, align 4
  br label %30

30:                                               ; preds = %29, %27
  %31 = load i32, ptr %3, align 4
  ret i32 %31

32:                                               ; preds = %27
  unreachable
}