; Function Attrs: mustprogress nofree norecurse nosync nounwind willreturn memory(argmem: read) uwtable
define dso_local noundef range(i32 0, 2) i32 @_ZeqRK4int3S1_(ptr noundef nonnull readonly align 4 captures(none) dereferenceable(12) %0, ptr noundef nonnull readonly align 4 captures(none) dereferenceable(12) %1) local_unnamed_addr #7 {
  br label %3

3:                                                ; preds = %3, %2
  %indvars.iv = phi i64 [ 0, %2 ], [ %indvars.iv.next, %3 ]
  %4 = getelementptr inbounds nuw i32, ptr %0, i64 %indvars.iv
  %5 = load i32, ptr %4, align 4, !tbaa !46
  %6 = getelementptr inbounds nuw i32, ptr %1, i64 %indvars.iv
  %7 = load i32, ptr %6, align 4, !tbaa !46
  %.not = icmp eq i32 %5, %7
  %indvars.iv.next = add nuw nsw i64 %indvars.iv, 1
  %exitcond = icmp ne i64 %indvars.iv.next, 3
  %or.cond.not = select i1 %.not, i1 %exitcond, i1 false
  br i1 %or.cond.not, label %3, label %8, !llvm.loop !47

8:                                                ; preds = %3
  %spec.select = zext i1 %.not to i32
  ret i32 %spec.select
}